target datalayout = "e-m:e-p270:32:32-p271:32:32-p272:64:64-i64:64-i128:128-f80:128-n8:16:32:64-S128"
target triple = "x86_64-pc-linux-gnu"

%struct.rb_data_type_struct = type { ptr, %struct.anon.12, ptr, ptr, i64 }
%struct.anon.12 = type { ptr, ptr, ptr, ptr, [1 x ptr] }
%struct.enum_product = type { i64 }

@.str.111 = private unnamed_addr constant [23 x i8] c"#<%li\0B: uninitialized>\00", align 1
@.str.112 = private unnamed_addr constant [13 x i8] c"#<%li\0B: ...>\00", align 1
@.str.113 = private unnamed_addr constant [15 x i8] c"#<%li\0B: %+li\0B>\00", align 1
@enum_product_data_type = internal constant %struct.rb_data_type_struct { ptr @.str.79, %struct.anon.12 { ptr @enum_product_mark, ptr inttoptr (i64 -1 to ptr), ptr @enum_product_memsize, ptr @enum_product_compact, [1 x ptr] zeroinitializer }, ptr null, ptr null, i64 1 }, align 8

; Function Attrs: inlinehint nounwind sspstrong willreturn memory(none) uwtable
define internal zeroext i1 @RB_UNDEF_P(i64 noundef %0) #2 {
  %2 = alloca i64, align 8
  store i64 %0, ptr %2, align 8, !tbaa !7
  %3 = load i64, ptr %2, align 8, !tbaa !7
  %4 = icmp eq i64 %3, 36
  ret i1 %4
}

; Function Attrs: nounwind sspstrong uwtable
define internal i64 @inspect_enum_product(i64 noundef %0, i64 noundef %1, i32 noundef %2) #0 {
  %4 = alloca i64, align 8
  %5 = alloca i64, align 8
  %6 = alloca i64, align 8
  %7 = alloca i32, align 4
  %8 = alloca i64, align 8
  %9 = alloca ptr, align 8
  %10 = alloca i32, align 4
  store i64 %0, ptr %5, align 8, !tbaa !7
  store i64 %1, ptr %6, align 8, !tbaa !7
  store i32 %2, ptr %7, align 4, !tbaa !11
  call void @llvm.lifetime.start.p0(i64 8, ptr %8) #23
  %11 = load i64, ptr %5, align 8, !tbaa !7
  %12 = call i64 @rb_obj_class(i64 noundef %11)
  store i64 %12, ptr %8, align 8, !tbaa !7
  call void @llvm.lifetime.start.p0(i64 8, ptr %9) #23
  %13 = load i64, ptr %5, align 8, !tbaa !7
  %14 = call ptr @rb_check_typeddata(i64 noundef %13, ptr noundef @enum_product_data_type)
  store ptr %14, ptr %9, align 8, !tbaa !70
  %15 = load ptr, ptr %9, align 8, !tbaa !70
  %16 = icmp ne ptr %15, null
  br i1 %16, label %17, label %22

17:                                               ; preds = %3
  %18 = load ptr, ptr %9, align 8, !tbaa !70
  %19 = getelementptr inbounds nuw %struct.enum_product, ptr %18, i32 0, i32 0
  %20 = load i64, ptr %19, align 8, !tbaa !72
  %21 = call zeroext i1 @RB_UNDEF_P(i64 noundef %20) #24
  br i1 %21, label %22, label %26

22:                                               ; preds = %17, %3
  %23 = load i64, ptr %8, align 8, !tbaa !7
  %24 = call i64 @rb_class_path(i64 noundef %23)
  %25 = call i64 (ptr, ...) @rb_sprintf(ptr noundef @.str.111, i64 noundef %24)
  store i64 %25, ptr %4, align 8
  store i32 1, ptr %10, align 4
  br label %40

26:                                               ; preds = %17
  %27 = load i32, ptr %7, align 4, !tbaa !11
  %28 = icmp ne i32 %27, 0
  br i1 %28, label %29, label %33

29:                                               ; preds = %26
  %30 = load i64, ptr %8, align 8, !tbaa !7
  %31 = call i64 @rb_class_path(i64 noundef %30)
  %32 = call i64 (ptr, ...) @rb_sprintf(ptr noundef @.str.112, i64 noundef %31)
  store i64 %32, ptr %4, align 8
  store i32 1, ptr %10, align 4
  br label %40

33:                                               ; preds = %26
  %34 = load i64, ptr %8, align 8, !tbaa !7
  %35 = call i64 @rb_class_path(i64 noundef %34)
  %36 = load ptr, ptr %9, align 8, !tbaa !70
  %37 = getelementptr inbounds nuw %struct.enum_product, ptr %36, i32 0, i32 0
  %38 = load i64, ptr %37, align 8, !tbaa !72
  %39 = call i64 (ptr, ...) @rb_sprintf(ptr noundef @.str.113, i64 noundef %35, i64 noundef %38)
  store i64 %39, ptr %4, align 8
  store i32 1, ptr %10, align 4
  br label %40

40:                                               ; preds = %33, %29, %22
  call void @llvm.lifetime.end.p0(i64 8, ptr %9) #23
  call void @llvm.lifetime.end.p0(i64 8, ptr %8) #23
  %41 = load i64, ptr %4, align 8
  ret i64 %41
}